Certificate:
    Data:
        Version: 3 (0x2)
        Serial Number: 0 (0x0)
        Signature Algorithm: sha1WithRSAEncryption
        Issuer: C=DE, ST=NRW, O=The Pragmatic Bookshelf, OU=Enterprise Recipes, CN=localhost/emailAddress=test@example.com
        Validity
            Not Before: Aug 16 14:35:49 2008 GMT
            Not After : Aug 16 14:35:50 2011 GMT
        Subject: C=DE, ST=NRW, O=The Pragmatic Bookshelf, OU=Enterprise Recipes, CN=localhost/emailAddress=test@example.com
        Subject Public Key Info:
            Public Key Algorithm: rsaEncryption
            RSA Public Key: (1024 bit)
                Modulus (1024 bit):
                    00:cf:97:f4:a9:ce:d0:16:86:f8:4b:40:72:da:d4:
                    07:ed:73:d5:65:de:25:33:d9:df:43:89:26:64:a0:
                    e3:a4:4b:53:b7:77:2b:69:5b:d8:f3:bd:5e:16:61:
                    3b:53:ae:38:e0:b5:b5:31:cd:68:77:78:f7:6f:8d:
                    3e:ea:73:9b:80:b0:85:54:33:b3:09:95:11:5c:e2:
                    bb:18:52:d9:f2:36:0a:10:7c:e3:dc:2b:fa:eb:45:
                    ab:07:bb:45:1e:32:25:b7:a9:44:17:52:05:92:09:
                    50:65:be:67:b9:5a:89:09:97:09:3b:c7:db:0a:ca:
                    28:b3:9d:80:f7:58:e3:66:35
                Exponent: 65537 (0x10001)
        X509v3 extensions:
            X509v3 Basic Constraints: 
                CA:FALSE
            Netscape Comment: 
                OpenSSL Generated Certificate
            X509v3 Subject Key Identifier: 
                79:50:67:28:D8:77:58:EA:C5:A4:C4:5A:73:D5:9F:70:E8:FD:DD:A8
            X509v3 Authority Key Identifier: 
                keyid:79:50:67:28:D8:77:58:EA:C5:A4:C4:5A:73:D5:9F:70:E8:FD:DD:A8

    Signature Algorithm: sha1WithRSAEncryption
        3e:79:85:33:ee:70:b3:17:2a:da:42:be:f7:2b:ea:9d:3d:c6:
        33:be:18:e3:dd:4c:c8:6c:9f:42:db:80:ba:fe:f1:e3:06:3c:
        8f:3b:d5:f3:6b:f3:9e:89:f0:ff:03:a3:aa:78:cf:4c:5e:89:
        44:c0:c6:a6:9b:f5:a5:90:ad:67:f7:fa:88:5d:6d:1c:50:f9:
        c0:96:f6:c3:7e:25:7f:93:b9:70:a4:0d:2b:66:28:a9:c1:9b:
        bf:a0:bf:ca:ef:23:42:f1:b4:d3:26:6f:03:a1:90:55:c8:55:
        f4:3a:73:0c:ec:40:60:81:80:e2:04:43:48:51:c6:19:51:6f:
        02:cb
-----BEGIN CERTIFICATE-----
MIIDETCCAnqgAwIBAgIBADANBgkqhkiG9w0BAQUFADCBjzELMAkGA1UEBhMCREUx
DDAKBgNVBAgTA05SVzEgMB4GA1UEChMXVGhlIFByYWdtYXRpYyBCb29rc2hlbGYx
GzAZBgNVBAsTEkVudGVycHJpc2UgUmVjaXBlczESMBAGA1UEAxMJbG9jYWxob3N0
MR8wHQYJKoZIhvcNAQkBFhB0ZXN0QGV4YW1wbGUuY29tMB4XDTA4MDgxNjE0MzU0
OVoXDTExMDgxNjE0MzU1MFowgY8xCzAJBgNVBAYTAkRFMQwwCgYDVQQIEwNOUlcx
IDAeBgNVBAoTF1RoZSBQcmFnbWF0aWMgQm9va3NoZWxmMRswGQYDVQQLExJFbnRl
cnByaXNlIFJlY2lwZXMxEjAQBgNVBAMTCWxvY2FsaG9zdDEfMB0GCSqGSIb3DQEJ
ARYQdGVzdEBleGFtcGxlLmNvbTCBnzANBgkqhkiG9w0BAQEFAAOBjQAwgYkCgYEA
z5f0qc7QFob4S0By2tQH7XPVZd4lM9nfQ4kmZKDjpEtTt3craVvY871eFmE7U644
4LW1Mc1od3j3b40+6nObgLCFVDOzCZURXOK7GFLZ8jYKEHzj3Cv660WrB7tFHjIl
t6lEF1IFkglQZb5nuVqJCZcJO8fbCsoos52A91jjZjUCAwEAAaN7MHkwCQYDVR0T
BAIwADAsBglghkgBhvhCAQ0EHxYdT3BlblNTTCBHZW5lcmF0ZWQgQ2VydGlmaWNh
dGUwHQYDVR0OBBYEFHlQZyjYd1jqxaTEWnPVn3Do/d2oMB8GA1UdIwQYMBaAFHlQ
ZyjYd1jqxaTEWnPVn3Do/d2oMA0GCSqGSIb3DQEBBQUAA4GBAD55hTPucLMXKtpC
vvcr6p09xjO+GOPdTMhsn0LbgLr+8eMGPI871fNr856J8P8Do6p4z0xeiUTAxqab
9aWQrWf3+ohdbRxQ+cCW9sN+JX+TuXCkDStmKKnBm7+gv8rvI0LxtNMmbwOhkFXI
VfQ6cwzsQGCBgOIEQ0hRxhlRbwLL
-----END CERTIFICATE-----
