Certificate:
    Data:
        Version: 3 (0x2)
        Serial Number: 1 (0x1)
        Signature Algorithm: sha1WithRSAEncryption
        Issuer: C=DE, ST=NRW, O=The Pragmatic Bookshelf, OU=Enterprise Recipes, CN=localhost/emailAddress=test@example.com
        Validity
            Not Before: Aug 16 14:37:27 2008 GMT
            Not After : Aug 16 14:37:27 2009 GMT
        Subject: C=DE, ST=NRW, L=Duisburg, O=The Pragmatic Bookshelf, OU=Enterprise Recipes, CN=ldaps://localhost:636/emailAddress=test@example.com
        Subject Public Key Info:
            Public Key Algorithm: rsaEncryption
            RSA Public Key: (1024 bit)
                Modulus (1024 bit):
                    00:d5:eb:5e:11:dc:18:7e:7f:df:07:d9:d8:9b:9c:
                    7e:58:a2:d1:03:58:af:da:bb:f2:d1:06:e1:02:4e:
                    a5:a2:fe:15:a7:66:06:58:79:fd:e1:f2:8d:e7:96:
                    bc:10:84:1d:f6:19:3d:3a:28:99:c0:d6:34:5e:07:
                    ea:6b:5a:41:e8:09:6d:05:80:4b:f4:9f:0e:71:fb:
                    2a:05:ff:61:13:45:b9:5d:ca:3a:38:8a:98:85:cd:
                    36:01:8e:89:21:9f:f0:a4:09:ee:0c:e7:02:83:cd:
                    5d:c6:88:c2:27:50:6a:9a:51:14:66:06:6c:79:ff:
                    9c:33:f1:f9:f5:91:25:ec:35
                Exponent: 65537 (0x10001)
        X509v3 extensions:
            X509v3 Basic Constraints: 
                CA:FALSE
            Netscape Comment: 
                OpenSSL Generated Certificate
            X509v3 Subject Key Identifier: 
                0B:88:3D:A5:78:D1:41:4E:3B:A0:DF:95:AC:32:A5:6D:54:39:39:37
            X509v3 Authority Key Identifier: 
                keyid:79:50:67:28:D8:77:58:EA:C5:A4:C4:5A:73:D5:9F:70:E8:FD:DD:A8

    Signature Algorithm: sha1WithRSAEncryption
        a4:00:6c:42:4e:f5:e4:10:22:ae:65:92:24:3b:04:c6:e0:08:
        b2:62:3f:b4:b3:12:3a:a5:25:cb:09:70:52:c0:3e:62:6a:46:
        bf:b3:ab:db:ce:f6:d7:bd:5a:88:2e:91:a1:42:aa:cd:e0:f1:
        aa:11:e2:b1:25:df:30:b3:0e:93:28:88:60:ee:e0:68:04:94:
        27:ed:32:a5:54:6a:0d:02:60:01:36:97:37:62:f6:a8:30:17:
        1e:79:8f:e3:78:94:96:01:7f:72:e0:94:85:7f:c0:9d:0a:06:
        ac:1e:06:fd:12:f4:f2:9d:70:29:a4:d8:f2:0a:86:a1:78:8d:
        b5:a7
-----BEGIN CERTIFICATE-----
MIIDMDCCApmgAwIBAgIBATANBgkqhkiG9w0BAQUFADCBjzELMAkGA1UEBhMCREUx
DDAKBgNVBAgTA05SVzEgMB4GA1UEChMXVGhlIFByYWdtYXRpYyBCb29rc2hlbGYx
GzAZBgNVBAsTEkVudGVycHJpc2UgUmVjaXBlczESMBAGA1UEAxMJbG9jYWxob3N0
MR8wHQYJKoZIhvcNAQkBFhB0ZXN0QGV4YW1wbGUuY29tMB4XDTA4MDgxNjE0Mzcy
N1oXDTA5MDgxNjE0MzcyN1owga4xCzAJBgNVBAYTAkRFMQwwCgYDVQQIEwNOUlcx
ETAPBgNVBAcTCER1aXNidXJnMSAwHgYDVQQKExdUaGUgUHJhZ21hdGljIEJvb2tz
aGVsZjEbMBkGA1UECxMSRW50ZXJwcmlzZSBSZWNpcGVzMR4wHAYDVQQDExVsZGFw
czovL2xvY2FsaG9zdDo2MzYxHzAdBgkqhkiG9w0BCQEWEHRlc3RAZXhhbXBsZS5j
b20wgZ8wDQYJKoZIhvcNAQEBBQADgY0AMIGJAoGBANXrXhHcGH5/3wfZ2Jucflii
0QNYr9q78tEG4QJOpaL+FadmBlh5/eHyjeeWvBCEHfYZPToomcDWNF4H6mtaQegJ
bQWAS/SfDnH7KgX/YRNFuV3KOjiKmIXNNgGOiSGf8KQJ7gznAoPNXcaIwidQappR
FGYGbHn/nDPx+fWRJew1AgMBAAGjezB5MAkGA1UdEwQCMAAwLAYJYIZIAYb4QgEN
BB8WHU9wZW5TU0wgR2VuZXJhdGVkIENlcnRpZmljYXRlMB0GA1UdDgQWBBQLiD2l
eNFBTjug35WsMqVtVDk5NzAfBgNVHSMEGDAWgBR5UGco2HdY6sWkxFpz1Z9w6P3d
qDANBgkqhkiG9w0BAQUFAAOBgQCkAGxCTvXkECKuZZIkOwTG4AiyYj+0sxI6pSXL
CXBSwD5iaka/s6vbzvbXvVqILpGhQqrN4PGqEeKxJd8wsw6TKIhg7uBoBJQn7TKl
VGoNAmABNpc3YvaoMBceeY/jeJSWAX9y4JSFf8CdCgasHgb9EvTynXAppNjyCoah
eI21pw==
-----END CERTIFICATE-----
